(lp1
S'/data/ana/Cscd/StartingEvents/NuGen/NuMu/medium_energy/IC86_2013/l2/11/l2_00010397.i3.bz2'
p2
aS'/data/ana/Cscd/StartingEvents/NuGen/NuMu/medium_energy/IC86_2013/l2/11/l2_00010466.i3.bz2'
p3
aS'/data/ana/Cscd/StartingEvents/NuGen/NuMu/medium_energy/IC86_2013/l2/11/l2_00010646.i3.bz2'
p4
aS'/data/ana/Cscd/StartingEvents/NuGen/NuMu/medium_energy/IC86_2013/l2/11/l2_00010043.i3.bz2'
p5
aS'/data/ana/Cscd/StartingEvents/NuGen/NuMu/medium_energy/IC86_2013/l2/11/l2_00010946.i3.bz2'
p6
a.