(lp1
S'/data/ana/Cscd/StartingEvents/NuGen/NuMu/medium_energy/IC86_2013/l2/48/l2_00047105.i3.bz2'
p2
aS'/data/ana/Cscd/StartingEvents/NuGen/NuMu/medium_energy/IC86_2013/l2/48/l2_00047859.i3.bz2'
p3
aS'/data/ana/Cscd/StartingEvents/NuGen/NuMu/medium_energy/IC86_2013/l2/48/l2_00047196.i3.bz2'
p4
aS'/data/ana/Cscd/StartingEvents/NuGen/NuMu/medium_energy/IC86_2013/l2/48/l2_00047442.i3.bz2'
p5
aS'/data/ana/Cscd/StartingEvents/NuGen/NuMu/medium_energy/IC86_2013/l2/48/l2_00047973.i3.bz2'
p6
a.