(lp1
S'/data/ana/Cscd/StartingEvents/NuGen/NuMu/medium_energy/IC86_2013/l2/10/l2_00009172.i3.bz2'
p2
aS'/data/ana/Cscd/StartingEvents/NuGen/NuMu/medium_energy/IC86_2013/l2/10/l2_00009832.i3.bz2'
p3
aS'/data/ana/Cscd/StartingEvents/NuGen/NuMu/medium_energy/IC86_2013/l2/10/l2_00009590.i3.bz2'
p4
aS'/data/ana/Cscd/StartingEvents/NuGen/NuMu/medium_energy/IC86_2013/l2/10/l2_00009276.i3.bz2'
p5
aS'/data/ana/Cscd/StartingEvents/NuGen/NuMu/medium_energy/IC86_2013/l2/10/l2_00009444.i3.bz2'
p6
a.