(lp1
S'/data/sim/IceCube/2012/filtered/level2/neutrino-generator/11981/00000-00999/clsim-base-4.0.3.0.99_eff/Level2_IC86.2012_nugen_nue.011981.000001.clsim-base-4.0.3.0.99_eff.i3.bz2'
p2
aS'/data/sim/IceCube/2012/filtered/level2/neutrino-generator/11981/00000-00999/clsim-base-4.0.3.0.99_eff/Level2_IC86.2012_nugen_nue.011981.000455.clsim-base-4.0.3.0.99_eff.i3.bz2'
p3
aS'/data/sim/IceCube/2012/filtered/level2/neutrino-generator/11981/00000-00999/clsim-base-4.0.3.0.99_eff/Level2_IC86.2012_nugen_nue.011981.000456.clsim-base-4.0.3.0.99_eff.i3.bz2'
p4
aS'/data/sim/IceCube/2012/filtered/level2/neutrino-generator/11981/00000-00999/clsim-base-4.0.3.0.99_eff/Level2_IC86.2012_nugen_nue.011981.000457.clsim-base-4.0.3.0.99_eff.i3.bz2'
p5
aS'/data/sim/IceCube/2012/filtered/level2/neutrino-generator/11981/00000-00999/clsim-base-4.0.3.0.99_eff/Level2_IC86.2012_nugen_nue.011981.000458.clsim-base-4.0.3.0.99_eff.i3.bz2'
p6
a.